target datalayout = "e-m:e-p270:32:32-p271:32:32-p272:64:64-i64:64-i128:128-f80:128-n8:16:32:64-S128"
target triple = "x86_64-pc-linux-gnu"

%struct.WebPRescaler = type { i32, i32, i32, i32, i32, i32, i32, i32, i32, i32, i32, i32, i32, i32, i32, i32, i32, ptr, i32, ptr, ptr }

; Function Attrs: nounwind uwtable
define internal i32 @WebPRescalerOutputDone(ptr noundef %0) #0 {
  %2 = alloca ptr, align 8
  store ptr %0, ptr %2, align 8
  %3 = load ptr, ptr %2, align 8
  %4 = getelementptr inbounds %struct.WebPRescaler, ptr %3, i32 0, i32 16
  %5 = load i32, ptr %4, align 8
  %6 = load ptr, ptr %2, align 8
  %7 = getelementptr inbounds %struct.WebPRescaler, ptr %6, i32 0, i32 14
  %8 = load i32, ptr %7, align 8
  %9 = icmp sge i32 %5, %8
  %10 = zext i1 %9 to i32
  ret i32 %10
}

; Function Attrs: nounwind uwtable
define internal i32 @WebPRescalerHasPendingOutput(ptr noundef %0) #0 {
  %2 = alloca ptr, align 8
  store ptr %0, ptr %2, align 8
  %3 = load ptr, ptr %2, align 8
  %4 = call i32 @WebPRescalerOutputDone(ptr noundef %3)
  %5 = icmp ne i32 %4, 0
  br i1 %5, label %11, label %6

6:                                                ; preds = %1
  %7 = load ptr, ptr %2, align 8
  %8 = getelementptr inbounds %struct.WebPRescaler, ptr %7, i32 0, i32 6
  %9 = load i32, ptr %8, align 8
  %10 = icmp sle i32 %9, 0
  br label %11

11:                                               ; preds = %6, %1
  %12 = phi i1 [ false, %1 ], [ %10, %6 ]
  %13 = zext i1 %12 to i32
  ret i32 %13
}

; Function Attrs: nounwind uwtable
define hidden i32 @WebPRescalerExport(ptr noundef %0) #0 {
  %2 = alloca ptr, align 8
  %3 = alloca i32, align 4
  store ptr %0, ptr %2, align 8
  store i32 0, ptr %3, align 4
  br label %4

4:                                                ; preds = %8, %1
  %5 = load ptr, ptr %2, align 8
  %6 = call i32 @WebPRescalerHasPendingOutput(ptr noundef %5)
  %7 = icmp ne i32 %6, 0
  br i1 %7, label %8, label %12

8:                                                ; preds = %4
  %9 = load ptr, ptr %2, align 8
  call void @WebPRescalerExportRow(ptr noundef %9)
  %10 = load i32, ptr %3, align 4
  %11 = add nsw i32 %10, 1
  store i32 %11, ptr %3, align 4
  br label %4, !llvm.loop !7

12:                                               ; preds = %4
  %13 = load i32, ptr %3, align 4
  ret i32 %13
}