; Function Attrs: nounwind uwtable
define hidden i32 @WebPRescalerExport(ptr noundef %0) local_unnamed_addr #0 {
  %2 = getelementptr inbounds i8, ptr %0, i64 24
  %3 = getelementptr i8, ptr %0, i64 56
  %4 = getelementptr i8, ptr %0, i64 64
  %.val.i4 = load i32, ptr %3, align 8
  %.val2.i5 = load i32, ptr %4, align 8
  %.not3.i6 = icmp slt i32 %.val2.i5, %.val.i4
  br i1 %.not3.i6, label %WebPRescalerHasPendingOutput.exit, label %WebPRescalerHasPendingOutput.exit.thread

WebPRescalerHasPendingOutput.exit:                ; preds = %1, %7
  %.07 = phi i32 [ %8, %7 ], [ 0, %1 ]
  %5 = load i32, ptr %2, align 8
  %6 = icmp sgt i32 %5, 0
  br i1 %6, label %WebPRescalerHasPendingOutput.exit.thread, label %7

7:                                                ; preds = %WebPRescalerHasPendingOutput.exit
  tail call void @WebPRescalerExportRow(ptr noundef nonnull %0) #6
  %8 = add nuw nsw i32 %.07, 1
  %.val.i = load i32, ptr %3, align 8
  %.val2.i = load i32, ptr %4, align 8
  %.not3.i = icmp slt i32 %.val2.i, %.val.i
  br i1 %.not3.i, label %WebPRescalerHasPendingOutput.exit, label %WebPRescalerHasPendingOutput.exit.thread, !llvm.loop !7

WebPRescalerHasPendingOutput.exit.thread:         ; preds = %WebPRescalerHasPendingOutput.exit, %7, %1
  %.0.lcssa = phi i32 [ 0, %1 ], [ %8, %7 ], [ %.07, %WebPRescalerHasPendingOutput.exit ]
  ret i32 %.0.lcssa
}